; Function Attrs: mustprogress nofree norecurse nosync nounwind willreturn memory(read, argmem: readwrite, inaccessiblemem: none) uwtable
define internal noundef i32 @H5P__dxfr_mpio_chunk_opt_hard_dec(ptr nocapture noundef %0, ptr nocapture noundef writeonly %1) #5 {
  %3 = load ptr, ptr %0, align 8
  %4 = getelementptr inbounds i8, ptr %3, i64 1
  store ptr %4, ptr %0, align 8
  %5 = load i8, ptr %3, align 1
  %6 = zext i8 %5 to i32
  store i32 %6, ptr %1, align 4
  ret i32 0
}